Certificate:
    Data:
        Version: 3 (0x2)
        Serial Number:
            47:a6:ad:17:77:12:30:5b:16:48:79:b8:2d:d5:b2:65
        Signature Algorithm: sha256WithRSAEncryption
        Issuer: CN=liuwei
        Validity
            Not Before: Jul  5 02:51:10 2018 GMT
            Not After : Jul  2 02:51:10 2028 GMT
        Subject: CN=server
        Subject Public Key Info:
            Public Key Algorithm: rsaEncryption
            RSA Public Key: (2048 bit)
                Modulus (2048 bit):
                    00:b4:c7:2e:6d:60:9d:79:ab:37:f9:6f:33:ef:79:
                    6b:85:0f:7d:4d:10:91:1b:d8:94:55:2e:3c:68:48:
                    2b:7f:2d:53:5a:89:8b:9c:b6:c8:2b:bb:e1:d0:f1:
                    5d:ce:8f:c2:59:5c:a4:e6:3b:f7:2d:a6:4e:4d:09:
                    af:6e:7d:04:28:3b:ad:49:09:64:e6:e2:cc:81:9b:
                    2a:39:f4:41:a8:1f:8a:b6:3f:17:b9:85:c0:87:da:
                    92:0d:70:b5:37:b8:2f:00:b1:fc:dc:8b:fb:45:9c:
                    aa:62:1c:a3:d0:59:b9:a2:36:66:49:19:ad:5b:06:
                    ad:51:bd:77:de:60:83:3e:e2:58:a1:6b:2b:a1:ff:
                    62:c6:70:e3:cd:cc:b6:32:65:2e:08:4f:c5:ff:e2:
                    a0:07:45:a1:0b:12:1d:ce:2d:c1:71:41:06:c1:2f:
                    d9:58:69:5b:28:32:39:73:c3:2b:dc:f1:9f:47:f7:
                    c4:85:30:a2:04:33:b3:72:07:e6:27:a5:ac:3e:1f:
                    80:f1:fd:89:fe:ca:d0:6c:ed:26:25:45:fd:1e:5b:
                    8c:46:41:ab:c7:5c:cc:ed:6c:c0:c0:d9:50:a7:f0:
                    75:3d:37:29:8c:52:95:56:63:f8:02:17:a7:0f:b8:
                    de:74:22:a9:90:b3:4c:d8:f0:82:8c:e2:17:fe:a2:
                    17:4b
                Exponent: 65537 (0x10001)
        X509v3 extensions:
            X509v3 Basic Constraints: 
                CA:FALSE
            X509v3 Subject Key Identifier: 
                EA:58:32:47:53:73:3C:99:13:5D:68:E6:98:E2:77:A8:A3:D5:79:1E
            X509v3 Authority Key Identifier: 
                keyid:0E:C2:33:D9:66:4E:BB:7E:DD:26:16:BA:E9:2C:E4:E3:B7:42:03:4F
                DirName:/CN=liuwei
                serial:D0:85:11:84:B1:C6:A5:5F

            X509v3 Extended Key Usage: 
                TLS Web Server Authentication
            X509v3 Key Usage: 
                Digital Signature, Key Encipherment
            X509v3 Subject Alternative Name: 
                DNS:server
    Signature Algorithm: sha256WithRSAEncryption
        3d:84:c8:04:17:29:3d:3a:b6:84:2b:77:21:bd:b7:34:b1:16:
        49:ba:78:9d:9e:9f:9b:b6:fe:85:e3:20:fb:2c:ab:07:b1:31:
        42:35:b9:f4:d0:fa:e7:eb:82:89:ea:1b:c6:ca:33:51:c0:45:
        6c:bb:e7:03:11:58:1f:80:79:56:da:07:b4:2e:bb:9d:99:f0:
        2f:e7:bc:43:c9:99:fc:03:73:dc:5e:80:88:e7:22:fa:54:65:
        0b:cd:a7:98:90:ef:34:38:70:54:28:36:20:61:37:c3:7a:e1:
        3c:1d:a4:9a:a6:8f:dd:f9:38:a4:80:0a:98:37:a4:b4:fd:81:
        17:8a:e9:2b:1f:5e:b4:78:aa:37:23:d0:01:12:e5:aa:81:4c:
        e0:64:7f:46:55:83:47:d0:d6:d2:f4:00:27:c6:84:86:6f:9a:
        18:f8:8e:c6:1b:8d:87:1f:11:e6:79:58:3f:d6:83:0b:ef:9b:
        bd:3c:5c:3b:bc:97:89:2a:86:b1:cb:01:53:a3:c9:b7:52:2a:
        f6:8e:98:2e:ec:fe:1f:e0:08:f8:16:bd:f9:d8:b6:c2:40:79:
        b7:ea:8e:7e:8e:91:0e:a6:f2:ab:64:c8:a4:15:ba:e5:cc:01:
        49:c1:b0:2e:ac:ff:a7:fa:db:e0:47:a1:d6:1c:89:93:c5:d6:
        d0:1d:11:fc
-----BEGIN CERTIFICATE-----
MIIDUjCCAjqgAwIBAgIQR6atF3cSMFsWSHm4LdWyZTANBgkqhkiG9w0BAQsFADAR
MQ8wDQYDVQQDDAZsaXV3ZWkwHhcNMTgwNzA1MDI1MTEwWhcNMjgwNzAyMDI1MTEw
WjARMQ8wDQYDVQQDDAZzZXJ2ZXIwggEiMA0GCSqGSIb3DQEBAQUAA4IBDwAwggEK
AoIBAQC0xy5tYJ15qzf5bzPveWuFD31NEJEb2JRVLjxoSCt/LVNaiYuctsgru+HQ
8V3Oj8JZXKTmO/ctpk5NCa9ufQQoO61JCWTm4syBmyo59EGoH4q2Pxe5hcCH2pIN
cLU3uC8Asfzci/tFnKpiHKPQWbmiNmZJGa1bBq1RvXfeYIM+4lihayuh/2LGcOPN
zLYyZS4IT8X/4qAHRaELEh3OLcFxQQbBL9lYaVsoMjlzwyvc8Z9H98SFMKIEM7Ny
B+Ynpaw+H4Dx/Yn+ytBs7SYlRf0eW4xGQavHXMztbMDA2VCn8HU9NymMUpVWY/gC
F6cPuN50IqmQs0zY8IKM4hf+ohdLAgMBAAGjgaUwgaIwCQYDVR0TBAIwADAdBgNV
HQ4EFgQU6lgyR1NzPJkTXWjmmOJ3qKPVeR4wQQYDVR0jBDowOIAUDsIz2WZOu37d
Jha66Szk47dCA0+hFaQTMBExDzANBgNVBAMMBmxpdXdlaYIJANCFEYSxxqVfMBMG
A1UdJQQMMAoGCCsGAQUFBwMBMAsGA1UdDwQEAwIFoDARBgNVHREECjAIggZzZXJ2
ZXIwDQYJKoZIhvcNAQELBQADggEBAD2EyAQXKT06toQrdyG9tzSxFkm6eJ2en5u2
/oXjIPssqwexMUI1ufTQ+ufrgonqG8bKM1HARWy75wMRWB+AeVbaB7Quu52Z8C/n
vEPJmfwDc9xegIjnIvpUZQvNp5iQ7zQ4cFQoNiBhN8N64TwdpJqmj935OKSACpg3
pLT9gReK6SsfXrR4qjcj0AES5aqBTOBkf0ZVg0fQ1tL0ACfGhIZvmhj4jsYbjYcf
EeZ5WD/Wgwvvm708XDu8l4kqhrHLAVOjybdSKvaOmC7s/h/gCPgWvfnYtsJAebfq
jn6OkQ6m8qtkyKQVuuXMAUnBsC6s/6f62+BHodYciZPF1tAdEfw=
-----END CERTIFICATE-----
