Certificate:
    Data:
        Version: 3 (0x2)
        Serial Number:
            9c:82:f1:25:33:9a:d5:c7:fd:d7:83:5b:60:a0:e5:4a
        Signature Algorithm: sha256WithRSAEncryption
        Issuer: CN=liuwei
        Validity
            Not Before: Jul  5 03:04:05 2018 GMT
            Not After : Jul  2 03:04:05 2028 GMT
        Subject: CN=*.fhyx.online
        Subject Public Key Info:
            Public Key Algorithm: rsaEncryption
            RSA Public Key: (2048 bit)
                Modulus (2048 bit):
                    00:c5:e5:bb:d3:8e:ea:de:cd:95:e2:eb:17:35:65:
                    ba:4c:a4:f0:d8:87:c9:2c:90:f4:df:14:45:0b:83:
                    a7:2c:1a:22:0e:2e:79:6c:1d:0f:c0:b6:1c:cb:a9:
                    b4:34:00:e9:ab:95:c8:db:5a:17:0b:59:73:32:bd:
                    a3:49:de:85:10:79:52:a7:81:36:02:cc:ae:98:96:
                    b5:84:ef:7c:f2:b4:bb:a5:4c:de:41:5e:85:13:9c:
                    4a:36:75:e1:51:74:da:6d:6a:48:91:04:b5:c5:ee:
                    62:7e:67:5a:12:73:bf:67:d6:99:11:08:04:93:22:
                    9c:50:08:c0:29:0f:bd:6a:ae:13:6f:b9:c8:db:26:
                    1a:d8:1e:b9:15:ca:52:46:ee:e7:3a:53:5d:e6:5f:
                    17:26:e3:a1:65:e6:46:0b:4c:5c:37:94:e5:5c:b5:
                    c9:c4:bb:ff:f9:2f:ff:54:8f:99:d4:e2:57:a0:80:
                    8f:1f:47:97:45:f8:10:f2:df:62:77:22:66:f7:94:
                    ee:c1:a2:2b:3e:4f:b6:03:08:9a:4a:39:25:c9:d7:
                    be:8b:dc:11:b2:4c:85:9c:1d:22:b7:d8:ec:e3:d2:
                    cc:7d:ef:d2:bc:a5:4d:80:f6:12:71:61:94:e6:45:
                    51:2f:b6:e9:66:85:59:d2:9c:47:93:5e:b8:35:b5:
                    69:87
                Exponent: 65537 (0x10001)
        X509v3 extensions:
            X509v3 Basic Constraints: 
                CA:FALSE
            X509v3 Subject Key Identifier: 
                A5:B2:EF:9A:E4:DE:A5:50:DE:BD:62:97:CE:54:D5:FA:33:9E:C9:38
            X509v3 Authority Key Identifier: 
                keyid:0E:C2:33:D9:66:4E:BB:7E:DD:26:16:BA:E9:2C:E4:E3:B7:42:03:4F
                DirName:/CN=liuwei
                serial:D0:85:11:84:B1:C6:A5:5F

            X509v3 Extended Key Usage: 
                TLS Web Server Authentication
            X509v3 Key Usage: 
                Digital Signature, Key Encipherment
            X509v3 Subject Alternative Name: 
                DNS:*.fhyx.online
    Signature Algorithm: sha256WithRSAEncryption
        6e:95:df:e1:a4:75:84:b2:c6:6c:8c:2c:6d:b5:72:03:d9:8a:
        e7:1f:e3:87:bf:31:d1:ac:a7:42:59:61:d0:27:a4:8d:09:27:
        12:75:a0:f3:c7:7b:25:6f:6f:88:cc:18:2a:47:c7:0b:a6:a9:
        8f:0a:2e:62:fe:c5:07:ee:5c:81:55:86:2d:95:c7:2d:68:fa:
        04:54:3b:da:da:0c:ad:01:e4:77:16:04:86:48:b6:ce:63:bf:
        29:3e:bd:8e:bd:a9:f5:99:ba:d2:55:4b:bc:c8:11:80:a8:24:
        19:0f:73:25:16:dc:69:e8:da:80:73:ae:7f:40:72:18:99:2a:
        6f:8e:09:fb:58:63:f4:3b:1f:89:eb:6e:ce:8d:e1:16:18:17:
        0f:3e:1b:36:c5:68:c1:b5:24:73:e1:6d:2b:e6:47:d4:9a:9e:
        e6:f0:5f:80:0e:be:d0:ea:fa:e5:dd:e8:46:51:84:0a:36:67:
        11:ab:69:f8:7f:2f:bf:09:c0:83:17:70:fd:34:3c:4a:4f:aa:
        df:16:ce:55:0d:51:2d:d8:0e:d2:10:49:bf:d2:79:f9:a2:86:
        eb:3f:25:d4:3e:30:00:bd:32:1c:a2:cb:c3:2d:23:a2:08:3b:
        ac:72:2d:a7:0b:93:4a:b3:39:82:9d:b6:14:c3:e4:ea:33:c9:
        da:b8:59:cd
-----BEGIN CERTIFICATE-----
MIIDYTCCAkmgAwIBAgIRAJyC8SUzmtXH/deDW2Cg5UowDQYJKoZIhvcNAQELBQAw
ETEPMA0GA1UEAwwGbGl1d2VpMB4XDTE4MDcwNTAzMDQwNVoXDTI4MDcwMjAzMDQw
NVowGDEWMBQGA1UEAwwNKi5maHl4Lm9ubGluZTCCASIwDQYJKoZIhvcNAQEBBQAD
ggEPADCCAQoCggEBAMXlu9OO6t7NleLrFzVlukyk8NiHySyQ9N8URQuDpywaIg4u
eWwdD8C2HMuptDQA6auVyNtaFwtZczK9o0nehRB5UqeBNgLMrpiWtYTvfPK0u6VM
3kFehROcSjZ14VF02m1qSJEEtcXuYn5nWhJzv2fWmREIBJMinFAIwCkPvWquE2+5
yNsmGtgeuRXKUkbu5zpTXeZfFybjoWXmRgtMXDeU5Vy1ycS7//kv/1SPmdTiV6CA
jx9Hl0X4EPLfYnciZveU7sGiKz5PtgMImko5JcnXvovcEbJMhZwdIrfY7OPSzH3v
0rylTYD2EnFhlOZFUS+26WaFWdKcR5NeuDW1aYcCAwEAAaOBrDCBqTAJBgNVHRME
AjAAMB0GA1UdDgQWBBSlsu+a5N6lUN69YpfOVNX6M57JODBBBgNVHSMEOjA4gBQO
wjPZZk67ft0mFrrpLOTjt0IDT6EVpBMwETEPMA0GA1UEAwwGbGl1d2VpggkA0IUR
hLHGpV8wEwYDVR0lBAwwCgYIKwYBBQUHAwEwCwYDVR0PBAQDAgWgMBgGA1UdEQQR
MA+CDSouZmh5eC5vbmxpbmUwDQYJKoZIhvcNAQELBQADggEBAG6V3+GkdYSyxmyM
LG21cgPZiucf44e/MdGsp0JZYdAnpI0JJxJ1oPPHeyVvb4jMGCpHxwumqY8KLmL+
xQfuXIFVhi2Vxy1o+gRUO9raDK0B5HcWBIZIts5jvyk+vY69qfWZutJVS7zIEYCo
JBkPcyUW3Gno2oBzrn9AchiZKm+OCftYY/Q7H4nrbs6N4RYYFw8+GzbFaMG1JHPh
bSvmR9SanubwX4AOvtDq+uXd6EZRhAo2ZxGrafh/L78JwIMXcP00PEpPqt8WzlUN
US3YDtIQSb/Sefmihus/JdQ+MAC9Mhyiy8MtI6IIO6xyLacLk0qzOYKdthTD5Ooz
ydq4Wc0=
-----END CERTIFICATE-----
