Certificate:
    Data:
        Version: 3 (0x2)
        Serial Number:
            a9:38:e5:4c:c0:77:62:60:a4:be:cb:0a:02:a9:18:60
        Signature Algorithm: sha256WithRSAEncryption
        Issuer: CN=liuwei
        Validity
            Not Before: Jul  5 03:06:12 2018 GMT
            Not After : Jul  2 03:06:12 2028 GMT
        Subject: CN=kc-spring-001
        Subject Public Key Info:
            Public Key Algorithm: rsaEncryption
            RSA Public Key: (2048 bit)
                Modulus (2048 bit):
                    00:db:70:80:0e:a9:2d:32:6f:c4:a7:78:12:e2:83:
                    b0:c9:7b:74:d5:29:9c:70:99:9d:29:9b:ba:b9:49:
                    82:e6:18:52:69:a4:cc:e1:5c:a4:e4:50:69:e8:9e:
                    db:15:2d:b5:1e:46:cb:d1:60:e7:e8:d3:63:4c:5e:
                    d7:ec:9d:e9:61:fe:65:83:9f:17:d1:de:ec:9c:6c:
                    88:d6:bf:49:3a:e4:14:8d:d6:1a:1b:86:d3:12:5d:
                    0a:e6:b3:ef:70:11:64:f0:fb:62:d2:8a:4f:f3:fb:
                    30:32:90:44:bd:92:da:94:2d:8e:9f:54:00:c6:25:
                    e0:3c:e4:20:e9:2b:b4:48:d0:0b:06:5a:26:90:71:
                    a1:a9:e5:e7:9e:f5:d6:cf:57:e1:fa:36:c9:4a:33:
                    7e:89:f1:75:9c:98:ba:6f:68:87:9d:22:74:35:ac:
                    aa:ab:2b:08:df:16:5f:4d:31:66:33:48:58:2d:d7:
                    93:3c:8a:c0:e5:c4:54:b4:7e:87:cb:66:06:85:86:
                    0c:e3:ba:64:bc:00:4c:08:7f:dd:f7:a8:31:2f:ce:
                    d3:de:7a:95:46:df:c1:0e:f0:f8:ac:b4:5a:7f:d4:
                    69:ae:4c:8f:78:46:07:47:16:a7:58:97:5a:da:6e:
                    3c:cd:a6:2b:3f:31:ec:3d:70:3f:b3:a9:50:a4:d6:
                    c9:2d
                Exponent: 65537 (0x10001)
        X509v3 extensions:
            X509v3 Basic Constraints: 
                CA:FALSE
            X509v3 Subject Key Identifier: 
                EA:1E:B8:91:AC:08:7B:AB:87:6B:6B:3C:68:7F:FC:21:98:39:F6:07
            X509v3 Authority Key Identifier: 
                keyid:0E:C2:33:D9:66:4E:BB:7E:DD:26:16:BA:E9:2C:E4:E3:B7:42:03:4F
                DirName:/CN=liuwei
                serial:D0:85:11:84:B1:C6:A5:5F

            X509v3 Extended Key Usage: 
                TLS Web Client Authentication
            X509v3 Key Usage: 
                Digital Signature
    Signature Algorithm: sha256WithRSAEncryption
        27:4f:65:df:1d:f6:a0:21:2c:ac:93:2e:1f:8a:0f:b3:be:87:
        e9:89:26:d8:e2:9c:1c:ed:ee:3c:71:c7:f3:41:25:2f:1b:75:
        06:42:2a:b7:56:60:72:4e:9e:62:fe:a9:f8:ea:9a:fc:fc:87:
        ff:01:42:b1:f3:1b:7f:b5:8c:ce:fc:29:78:ca:d4:29:34:1f:
        41:07:93:60:0c:71:fc:b2:51:e9:8a:43:be:65:98:77:a4:17:
        39:f0:a7:3f:e0:91:11:28:39:4d:47:33:c2:3b:79:74:c3:d7:
        46:8f:c5:df:7c:bb:a8:9f:09:d1:ba:ad:c0:91:7d:8d:ca:d6:
        3a:bd:85:ba:97:92:0f:6c:51:cd:6a:6f:f9:94:e2:77:18:a2:
        3e:29:14:d1:02:59:a7:57:87:93:74:4e:a0:4d:2b:aa:95:17:
        a0:7d:28:d7:a9:53:f8:ac:1d:8e:44:f9:d2:0e:99:c0:04:2a:
        76:85:ac:81:ca:8a:1f:54:c1:68:4d:2c:8e:ea:91:d3:58:f7:
        fe:2f:3b:2e:69:d5:58:94:dd:e3:9e:e7:de:13:63:be:97:09:
        4d:ca:b8:2c:3d:b3:c6:58:57:2d:cf:ec:7a:4b:46:e8:dd:66:
        9b:26:c5:82:b8:6c:a7:da:df:f3:c8:96:38:42:a3:b0:7e:d2:
        51:db:b6:7c
-----BEGIN CERTIFICATE-----
MIIDRzCCAi+gAwIBAgIRAKk45UzAd2JgpL7LCgKpGGAwDQYJKoZIhvcNAQELBQAw
ETEPMA0GA1UEAwwGbGl1d2VpMB4XDTE4MDcwNTAzMDYxMloXDTI4MDcwMjAzMDYx
MlowGDEWMBQGA1UEAwwNa2Mtc3ByaW5nLTAwMTCCASIwDQYJKoZIhvcNAQEBBQAD
ggEPADCCAQoCggEBANtwgA6pLTJvxKd4EuKDsMl7dNUpnHCZnSmburlJguYYUmmk
zOFcpORQaeie2xUttR5Gy9Fg5+jTY0xe1+yd6WH+ZYOfF9He7JxsiNa/STrkFI3W
GhuG0xJdCuaz73ARZPD7YtKKT/P7MDKQRL2S2pQtjp9UAMYl4DzkIOkrtEjQCwZa
JpBxoanl55711s9X4fo2yUozfonxdZyYum9oh50idDWsqqsrCN8WX00xZjNIWC3X
kzyKwOXEVLR+h8tmBoWGDOO6ZLwATAh/3feoMS/O0956lUbfwQ7w+Ky0Wn/Uaa5M
j3hGB0cWp1iXWtpuPM2mKz8x7D1wP7OpUKTWyS0CAwEAAaOBkjCBjzAJBgNVHRME
AjAAMB0GA1UdDgQWBBTqHriRrAh7q4drazxof/whmDn2BzBBBgNVHSMEOjA4gBQO
wjPZZk67ft0mFrrpLOTjt0IDT6EVpBMwETEPMA0GA1UEAwwGbGl1d2VpggkA0IUR
hLHGpV8wEwYDVR0lBAwwCgYIKwYBBQUHAwIwCwYDVR0PBAQDAgeAMA0GCSqGSIb3
DQEBCwUAA4IBAQAnT2XfHfagISysky4fig+zvofpiSbY4pwc7e48ccfzQSUvG3UG
Qiq3VmByTp5i/qn46pr8/If/AUKx8xt/tYzO/Cl4ytQpNB9BB5NgDHH8slHpikO+
ZZh3pBc58Kc/4JERKDlNRzPCO3l0w9dGj8XffLuonwnRuq3AkX2NytY6vYW6l5IP
bFHNam/5lOJ3GKI+KRTRAlmnV4eTdE6gTSuqlRegfSjXqVP4rB2ORPnSDpnABCp2
hayByoofVMFoTSyO6pHTWPf+LzsuadVYlN3jnufeE2O+lwlNyrgsPbPGWFctz+x6
S0bo3WabJsWCuGyn2t/zyJY4QqOwftJR27Z8
-----END CERTIFICATE-----
